target datalayout = "e-m:e-p270:32:32-p271:32:32-p272:64:64-i64:64-i128:128-f80:128-n8:16:32:64-S128"
target triple = "x86_64-pc-linux-gnu"

%"class.clang::SourceLocation" = type { i32 }
%"class.clang::SourceRange" = type { %"class.clang::SourceLocation", %"class.clang::SourceLocation" }
%"class.clang::SemaBase" = type { ptr }
%"class.clang::AttributeCommonInfo" = type { ptr, ptr, %"class.clang::SourceRange", %"class.clang::SourceLocation", i32 }
%"class.llvm::PointerUnion.1057" = type { %"class.llvm::pointer_union_detail::PointerUnionMembers.1058" }
%"class.llvm::pointer_union_detail::PointerUnionMembers.1058" = type { %"class.llvm::pointer_union_detail::PointerUnionMembers.1059" }
%"class.llvm::pointer_union_detail::PointerUnionMembers.1059" = type { %"class.llvm::pointer_union_detail::PointerUnionMembers.1060" }
%"class.llvm::pointer_union_detail::PointerUnionMembers.1060" = type { %"class.llvm::PointerIntPair.1061" }
%"class.llvm::PointerIntPair.1061" = type { %"struct.llvm::detail::PunnedPointer.1005" }
%"struct.llvm::detail::PunnedPointer.1005" = type { [8 x i8] }
%"class.clang::ParsedAttr" = type { %"class.clang::AttributeCommonInfo", ptr, %"class.clang::SourceLocation", %"class.clang::SourceLocation", i32, %"class.clang::SourceLocation", ptr, ptr }

; Function Attrs: mustprogress nounwind uwtable
define linkonce_odr hidden noundef ptr @_ZN4llvm20pointer_union_detail22PointerUnionUIntTraitsIJPN5clang4ExprEPNS2_13IdentifierLocEEE18getFromVoidPointerEPv(ptr noundef %0) #0 comdat align 2 {
  %2 = alloca ptr, align 8
  store ptr %0, ptr %2, align 8
  %3 = load ptr, ptr %2, align 8
  ret ptr %3
}

; Function Attrs: mustprogress nounwind uwtable
define linkonce_odr hidden noundef i64 @_ZNK4llvm6detail13PunnedPointerIPvE5asIntEv(ptr noundef nonnull align 8 dereferenceable(8) %0) #0 comdat align 2 {
  %2 = alloca ptr, align 8
  %3 = alloca i64, align 8
  store ptr %0, ptr %2, align 8
  %4 = load ptr, ptr %2, align 8
  store i64 0, ptr %3, align 8
  %5 = getelementptr inbounds nuw %"struct.llvm::detail::PunnedPointer.1005", ptr %4, i32 0, i32 0
  %6 = getelementptr inbounds [8 x i8], ptr %5, i64 0, i64 0
  call void @llvm.memcpy.p0.p0.i64(ptr align 8 %3, ptr align 8 %6, i64 8, i1 false)
  %7 = load i64, ptr %3, align 8
  ret i64 %7
}

; Function Attrs: mustprogress nounwind uwtable
define linkonce_odr hidden noundef ptr @_ZN4llvm18PointerIntPairInfoIPvLj1ENS_20pointer_union_detail22PointerUnionUIntTraitsIJPN5clang4ExprEPNS4_13IdentifierLocEEEEE10getPointerEl(i64 noundef %0) #0 comdat align 2 {
  %2 = alloca i64, align 8
  store i64 %0, ptr %2, align 8
  %3 = load i64, ptr %2, align 8
  %4 = and i64 %3, -4
  %5 = inttoptr i64 %4 to ptr
  %6 = call noundef ptr @_ZN4llvm20pointer_union_detail22PointerUnionUIntTraitsIJPN5clang4ExprEPNS2_13IdentifierLocEEE18getFromVoidPointerEPv(ptr noundef %5)
  ret ptr %6
}

; Function Attrs: mustprogress nounwind uwtable
define linkonce_odr hidden noundef i64 @_ZNK4llvm6detail13PunnedPointerIPvEcvlEv(ptr noundef nonnull align 8 dereferenceable(8) %0) #0 comdat align 2 {
  %2 = alloca ptr, align 8
  store ptr %0, ptr %2, align 8
  %3 = load ptr, ptr %2, align 8
  %4 = call noundef i64 @_ZNK4llvm6detail13PunnedPointerIPvE5asIntEv(ptr noundef nonnull align 8 dereferenceable(8) %3)
  ret i64 %4
}

; Function Attrs: mustprogress nounwind uwtable
define linkonce_odr hidden noundef ptr @_ZN4llvm21PointerLikeTypeTraitsIPN5clang4ExprEE18getFromVoidPointerEPv(ptr noundef %0) #0 comdat align 2 {
  %2 = alloca ptr, align 8
  store ptr %0, ptr %2, align 8
  %3 = load ptr, ptr %2, align 8
  ret ptr %3
}

; Function Attrs: mustprogress nounwind uwtable
define linkonce_odr hidden noundef ptr @_ZNK4llvm14PointerIntPairIPvLj1EiNS_20pointer_union_detail22PointerUnionUIntTraitsIJPN5clang4ExprEPNS4_13IdentifierLocEEEENS_18PointerIntPairInfoIS1_Lj1ES9_EEE10getPointerEv(ptr noundef nonnull align 8 dereferenceable(8) %0) #0 comdat align 2 {
  %2 = alloca ptr, align 8
  store ptr %0, ptr %2, align 8
  %3 = load ptr, ptr %2, align 8
  %4 = getelementptr inbounds nuw %"class.llvm::PointerIntPair.1061", ptr %3, i32 0, i32 0
  %5 = call noundef i64 @_ZNK4llvm6detail13PunnedPointerIPvEcvlEv(ptr noundef nonnull align 8 dereferenceable(8) %4)
  %6 = call noundef ptr @_ZN4llvm18PointerIntPairInfoIPvLj1ENS_20pointer_union_detail22PointerUnionUIntTraitsIJPN5clang4ExprEPNS4_13IdentifierLocEEEEE10getPointerEl(i64 noundef %5)
  ret ptr %6
}

; Function Attrs: mustprogress nounwind uwtable
define linkonce_odr hidden noundef ptr @_ZN4llvm24CastInfoPointerUnionImplIJPN5clang4ExprEPNS1_13IdentifierLocEEE6doCastIS3_EET_RNS_12PointerUnionIJS3_S5_EEE(ptr noundef nonnull align 8 dereferenceable(8) %0) #0 comdat align 2 {
  %2 = alloca ptr, align 8
  store ptr %0, ptr %2, align 8
  %3 = load ptr, ptr %2, align 8
  %4 = getelementptr inbounds nuw %"class.llvm::pointer_union_detail::PointerUnionMembers.1060", ptr %3, i32 0, i32 0
  %5 = call noundef ptr @_ZNK4llvm14PointerIntPairIPvLj1EiNS_20pointer_union_detail22PointerUnionUIntTraitsIJPN5clang4ExprEPNS4_13IdentifierLocEEEENS_18PointerIntPairInfoIS1_Lj1ES9_EEE10getPointerEv(ptr noundef nonnull align 8 dereferenceable(8) %4)
  %6 = call noundef ptr @_ZN4llvm21PointerLikeTypeTraitsIPN5clang4ExprEE18getFromVoidPointerEPv(ptr noundef %5)
  ret ptr %6
}

; Function Attrs: mustprogress nounwind uwtable
define linkonce_odr hidden noundef i64 @_ZN4llvm15TrailingObjectsIN5clang10ParsedAttrEJNS_12PointerUnionIJPNS1_4ExprEPNS1_13IdentifierLocEEEENS1_6detail16AvailabilityDataENS9_22TypeTagForDatatypeDataENS1_9OpaquePtrINS1_8QualTypeEEENS9_12PropertyDataEEE22callNumTrailingObjectsEPKS2_NS_25trailing_objects_internal19TrailingObjectsBase13OverloadTokenIS2_EE(ptr noundef %0) #0 comdat align 2 {
  %2 = alloca ptr, align 8
  store ptr %0, ptr %2, align 8
  ret i64 1
}

; Function Attrs: mustprogress nounwind uwtable
define linkonce_odr hidden noundef ptr @_ZN4llvm15TrailingObjectsIN5clang10ParsedAttrEJNS_12PointerUnionIJPNS1_4ExprEPNS1_13IdentifierLocEEEENS1_6detail16AvailabilityDataENS9_22TypeTagForDatatypeDataENS1_9OpaquePtrINS1_8QualTypeEEENS9_12PropertyDataEEE22getTrailingObjectsImplEPKS2_NS_25trailing_objects_internal19TrailingObjectsBase13OverloadTokenIS2_EE(ptr noundef %0) #0 comdat align 2 {
  %2 = alloca ptr, align 8
  store ptr %0, ptr %2, align 8
  %3 = load ptr, ptr %2, align 8
  ret ptr %3
}

; Function Attrs: mustprogress nounwind uwtable
define linkonce_odr hidden noundef ptr @_ZN4llvm8CastInfoIPN5clang4ExprENS_12PointerUnionIJS3_PNS1_13IdentifierLocEEEEvE6doCastERS7_(ptr noundef nonnull align 8 dereferenceable(8) %0) #0 comdat align 2 {
  %2 = alloca ptr, align 8
  store ptr %0, ptr %2, align 8
  %3 = load ptr, ptr %2, align 8
  %4 = call noundef ptr @_ZN4llvm24CastInfoPointerUnionImplIJPN5clang4ExprEPNS1_13IdentifierLocEEE6doCastIS3_EET_RNS_12PointerUnionIJS3_S5_EEE(ptr noundef nonnull align 8 dereferenceable(8) %3)
  ret ptr %4
}

; Function Attrs: mustprogress nounwind uwtable
define linkonce_odr hidden noundef ptr @_ZN4llvm25trailing_objects_internal19TrailingObjectsImplILi8EN5clang10ParsedAttrENS_15TrailingObjectsIS3_JNS_12PointerUnionIJPNS2_4ExprEPNS2_13IdentifierLocEEEENS2_6detail16AvailabilityDataENSB_22TypeTagForDatatypeDataENS2_9OpaquePtrINS2_8QualTypeEEENSB_12PropertyDataEEEES3_JSA_SC_SD_SG_SH_EE22getTrailingObjectsImplEPKS3_NS0_19TrailingObjectsBase13OverloadTokenISA_EE(ptr noundef %0) #0 comdat align 2 {
  %2 = alloca ptr, align 8
  %3 = alloca ptr, align 8
  store ptr %0, ptr %2, align 8
  %4 = load ptr, ptr %2, align 8
  %5 = call noundef ptr @_ZN4llvm15TrailingObjectsIN5clang10ParsedAttrEJNS_12PointerUnionIJPNS1_4ExprEPNS1_13IdentifierLocEEEENS1_6detail16AvailabilityDataENS9_22TypeTagForDatatypeDataENS1_9OpaquePtrINS1_8QualTypeEEENS9_12PropertyDataEEE22getTrailingObjectsImplEPKS2_NS_25trailing_objects_internal19TrailingObjectsBase13OverloadTokenIS2_EE(ptr noundef %4)
  %6 = load ptr, ptr %2, align 8
  %7 = call noundef i64 @_ZN4llvm15TrailingObjectsIN5clang10ParsedAttrEJNS_12PointerUnionIJPNS1_4ExprEPNS1_13IdentifierLocEEEENS1_6detail16AvailabilityDataENS9_22TypeTagForDatatypeDataENS1_9OpaquePtrINS1_8QualTypeEEENS9_12PropertyDataEEE22callNumTrailingObjectsEPKS2_NS_25trailing_objects_internal19TrailingObjectsBase13OverloadTokenIS2_EE(ptr noundef %6)
  %8 = getelementptr inbounds %"class.clang::ParsedAttr", ptr %5, i64 %7
  store ptr %8, ptr %3, align 8
  %9 = load ptr, ptr %3, align 8
  ret ptr %9
}

; Function Attrs: mustprogress nounwind uwtable
define linkonce_odr hidden void @_ZN4llvm15TrailingObjectsIN5clang10ParsedAttrEJNS_12PointerUnionIJPNS1_4ExprEPNS1_13IdentifierLocEEEENS1_6detail16AvailabilityDataENS9_22TypeTagForDatatypeDataENS1_9OpaquePtrINS1_8QualTypeEEENS9_12PropertyDataEEE31verifyTrailingObjectsAssertionsEv() #0 comdat align 2 {
  ret void
}

; Function Attrs: mustprogress nounwind uwtable
define linkonce_odr hidden noundef ptr @_ZN4llvm28ConstStrippingForwardingCastIPN5clang4ExprEKNS_12PointerUnionIJS3_PNS1_13IdentifierLocEEEENS_8CastInfoIS3_S7_vEEE6doCastERS8_(ptr noundef nonnull align 8 dereferenceable(8) %0) #0 comdat align 2 {
  %2 = alloca ptr, align 8
  store ptr %0, ptr %2, align 8
  %3 = load ptr, ptr %2, align 8
  %4 = call noundef ptr @_ZN4llvm8CastInfoIPN5clang4ExprENS_12PointerUnionIJS3_PNS1_13IdentifierLocEEEEvE6doCastERS7_(ptr noundef nonnull align 8 dereferenceable(8) %3)
  ret ptr %4
}

; Function Attrs: mustprogress nounwind uwtable
define linkonce_odr hidden noundef ptr @_ZNK4llvm15TrailingObjectsIN5clang10ParsedAttrEJNS_12PointerUnionIJPNS1_4ExprEPNS1_13IdentifierLocEEEENS1_6detail16AvailabilityDataENS9_22TypeTagForDatatypeDataENS1_9OpaquePtrINS1_8QualTypeEEENS9_12PropertyDataEEE18getTrailingObjectsIS8_EEPKT_v(ptr noundef nonnull align 8 dereferenceable(8) %0) #0 comdat align 2 {
  %2 = alloca ptr, align 8
  store ptr %0, ptr %2, align 8
  %3 = load ptr, ptr %2, align 8
  call void @_ZN4llvm15TrailingObjectsIN5clang10ParsedAttrEJNS_12PointerUnionIJPNS1_4ExprEPNS1_13IdentifierLocEEEENS1_6detail16AvailabilityDataENS9_22TypeTagForDatatypeDataENS1_9OpaquePtrINS1_8QualTypeEEENS9_12PropertyDataEEE31verifyTrailingObjectsAssertionsEv()
  %4 = call noundef ptr @_ZN4llvm25trailing_objects_internal19TrailingObjectsImplILi8EN5clang10ParsedAttrENS_15TrailingObjectsIS3_JNS_12PointerUnionIJPNS2_4ExprEPNS2_13IdentifierLocEEEENS2_6detail16AvailabilityDataENSB_22TypeTagForDatatypeDataENS2_9OpaquePtrINS2_8QualTypeEEENSB_12PropertyDataEEEES3_JSA_SC_SD_SG_SH_EE22getTrailingObjectsImplEPKS3_NS0_19TrailingObjectsBase13OverloadTokenISA_EE(ptr noundef %3)
  ret ptr %4
}

; Function Attrs: mustprogress nounwind uwtable
define linkonce_odr hidden noundef ptr @_ZN4llvm4castIPN5clang4ExprENS_12PointerUnionIJS3_PNS1_13IdentifierLocEEEEEEDcRKT0_(ptr noundef nonnull align 8 dereferenceable(8) %0) #0 comdat {
  %2 = alloca ptr, align 8
  store ptr %0, ptr %2, align 8
  %3 = load ptr, ptr %2, align 8
  %4 = call noundef ptr @_ZN4llvm28ConstStrippingForwardingCastIPN5clang4ExprEKNS_12PointerUnionIJS3_PNS1_13IdentifierLocEEEENS_8CastInfoIS3_S7_vEEE6doCastERS8_(ptr noundef nonnull align 8 dereferenceable(8) %3)
  ret ptr %4
}

; Function Attrs: mustprogress nounwind uwtable
define linkonce_odr hidden noundef ptr @_ZNK5clang10ParsedAttr13getArgsBufferEv(ptr noundef nonnull align 8 dereferenceable(72) %0) #0 comdat align 2 {
  %2 = alloca ptr, align 8
  store ptr %0, ptr %2, align 8
  %3 = load ptr, ptr %2, align 8
  %4 = call noundef ptr @_ZNK4llvm15TrailingObjectsIN5clang10ParsedAttrEJNS_12PointerUnionIJPNS1_4ExprEPNS1_13IdentifierLocEEEENS1_6detail16AvailabilityDataENS9_22TypeTagForDatatypeDataENS1_9OpaquePtrINS1_8QualTypeEEENS9_12PropertyDataEEE18getTrailingObjectsIS8_EEPKT_v(ptr noundef nonnull align 8 dereferenceable(8) %3)
  ret ptr %4
}

; Function Attrs: mustprogress nounwind uwtable
define linkonce_odr hidden noundef ptr @_ZNK4llvm12PointerUnionIJPN5clang4ExprEPNS1_13IdentifierLocEEE3getIS3_EET_v(ptr noundef nonnull align 8 dereferenceable(8) %0) #0 comdat align 2 {
  %2 = alloca ptr, align 8
  store ptr %0, ptr %2, align 8
  %3 = load ptr, ptr %2, align 8
  %4 = call noundef ptr @_ZN4llvm4castIPN5clang4ExprENS_12PointerUnionIJS3_PNS1_13IdentifierLocEEEEEEDcRKT0_(ptr noundef nonnull align 8 dereferenceable(8) %3)
  ret ptr %4
}

; Function Attrs: mustprogress nounwind uwtable
define linkonce_odr hidden i64 @_ZNK5clang10ParsedAttr6getArgEj(ptr noundef nonnull align 8 dereferenceable(72) %0, i32 noundef %1) #0 comdat align 2 {
  %3 = alloca %"class.llvm::PointerUnion.1057", align 8
  %4 = alloca ptr, align 8
  %5 = alloca i32, align 4
  store ptr %0, ptr %4, align 8
  store i32 %1, ptr %5, align 4
  %6 = load ptr, ptr %4, align 8
  %7 = call noundef ptr @_ZNK5clang10ParsedAttr13getArgsBufferEv(ptr noundef nonnull align 8 dereferenceable(72) %6)
  %8 = load i32, ptr %5, align 4
  %9 = zext i32 %8 to i64
  %10 = getelementptr inbounds %"class.llvm::PointerUnion.1057", ptr %7, i64 %9
  call void @llvm.memcpy.p0.p0.i64(ptr align 8 %3, ptr align 8 %10, i64 8, i1 false)
  %11 = getelementptr inbounds nuw %"class.llvm::PointerUnion.1057", ptr %3, i32 0, i32 0
  %12 = getelementptr inbounds nuw %"class.llvm::pointer_union_detail::PointerUnionMembers.1058", ptr %11, i32 0, i32 0
  %13 = getelementptr inbounds nuw %"class.llvm::pointer_union_detail::PointerUnionMembers.1059", ptr %12, i32 0, i32 0
  %14 = getelementptr inbounds nuw %"class.llvm::pointer_union_detail::PointerUnionMembers.1060", ptr %13, i32 0, i32 0
  %15 = getelementptr inbounds nuw %"class.llvm::PointerIntPair.1061", ptr %14, i32 0, i32 0
  %16 = getelementptr inbounds nuw %"struct.llvm::detail::PunnedPointer.1005", ptr %15, i32 0, i32 0
  %17 = load i64, ptr %16, align 8
  ret i64 %17
}

; Function Attrs: mustprogress nounwind uwtable
define dso_local void @_ZN5clang10SemaAMDGPU23addAMDGPUWavesPerEUAttrEPNS_4DeclERKNS_19AttributeCommonInfoEPNS_4ExprES7_(ptr noundef nonnull align 8 dereferenceable(8) %0, ptr noundef %1, ptr noundef nonnull align 8 dereferenceable(32) %2, ptr noundef %3, ptr noundef %4) #0 align 2 {
  %6 = alloca ptr, align 8
  %7 = alloca ptr, align 8
  %8 = alloca ptr, align 8
  %9 = alloca ptr, align 8
  %10 = alloca ptr, align 8
  %11 = alloca ptr, align 8
  store ptr %0, ptr %6, align 8
  store ptr %1, ptr %7, align 8
  store ptr %2, ptr %8, align 8
  store ptr %3, ptr %9, align 8
  store ptr %4, ptr %10, align 8
  %12 = load ptr, ptr %6, align 8
  %13 = load ptr, ptr %8, align 8
  %14 = load ptr, ptr %9, align 8
  %15 = load ptr, ptr %10, align 8
  %16 = call noundef ptr @_ZN5clang10SemaAMDGPU26CreateAMDGPUWavesPerEUAttrERKNS_19AttributeCommonInfoEPNS_4ExprES5_(ptr noundef nonnull align 8 dereferenceable(8) %12, ptr noundef nonnull align 8 dereferenceable(32) %13, ptr noundef %14, ptr noundef %15)
  store ptr %16, ptr %11, align 8
  %17 = load ptr, ptr %11, align 8
  %18 = icmp ne ptr %17, null
  br i1 %18, label %19, label %22

19:                                               ; preds = %5
  %20 = load ptr, ptr %7, align 8
  %21 = load ptr, ptr %11, align 8
  call void @_ZN5clang4Decl7addAttrEPNS_4AttrE(ptr noundef nonnull align 8 dereferenceable(33) %20, ptr noundef %21)
  br label %22

22:                                               ; preds = %19, %5
  ret void
}

; Function Attrs: mustprogress nounwind uwtable
define linkonce_odr hidden noundef i32 @_ZNK5clang10ParsedAttr10getNumArgsEv(ptr noundef nonnull align 8 dereferenceable(72) %0) #0 comdat align 2 {
  %2 = alloca ptr, align 8
  store ptr %0, ptr %2, align 8
  %3 = load ptr, ptr %2, align 8
  %4 = getelementptr inbounds nuw %"class.clang::ParsedAttr", ptr %3, i32 0, i32 4
  %5 = load i32, ptr %4, align 8
  %6 = and i32 %5, 65535
  ret i32 %6
}

; Function Attrs: mustprogress nounwind uwtable
define linkonce_odr hidden noundef ptr @_ZNK5clang10ParsedAttr12getArgAsExprEj(ptr noundef nonnull align 8 dereferenceable(72) %0, i32 noundef %1) #0 comdat align 2 {
  %3 = alloca ptr, align 8
  %4 = alloca i32, align 4
  %5 = alloca %"class.llvm::PointerUnion.1057", align 8
  store ptr %0, ptr %3, align 8
  store i32 %1, ptr %4, align 4
  %6 = load ptr, ptr %3, align 8
  %7 = load i32, ptr %4, align 4
  %8 = call i64 @_ZNK5clang10ParsedAttr6getArgEj(ptr noundef nonnull align 8 dereferenceable(72) %6, i32 noundef %7)
  %9 = getelementptr inbounds nuw %"class.llvm::PointerUnion.1057", ptr %5, i32 0, i32 0
  %10 = getelementptr inbounds nuw %"class.llvm::pointer_union_detail::PointerUnionMembers.1058", ptr %9, i32 0, i32 0
  %11 = getelementptr inbounds nuw %"class.llvm::pointer_union_detail::PointerUnionMembers.1059", ptr %10, i32 0, i32 0
  %12 = getelementptr inbounds nuw %"class.llvm::pointer_union_detail::PointerUnionMembers.1060", ptr %11, i32 0, i32 0
  %13 = getelementptr inbounds nuw %"class.llvm::PointerIntPair.1061", ptr %12, i32 0, i32 0
  %14 = getelementptr inbounds nuw %"struct.llvm::detail::PunnedPointer.1005", ptr %13, i32 0, i32 0
  store i64 %8, ptr %14, align 8
  %15 = call noundef ptr @_ZNK4llvm12PointerUnionIJPN5clang4ExprEPNS1_13IdentifierLocEEE3getIS3_EET_v(ptr noundef nonnull align 8 dereferenceable(8) %5)
  ret ptr %15
}

; Function Attrs: mustprogress nounwind uwtable
define dso_local void @_ZN5clang10SemaAMDGPU26handleAMDGPUWavesPerEUAttrEPNS_4DeclERKNS_10ParsedAttrE(ptr noundef nonnull align 8 dereferenceable(8) %0, ptr noundef %1, ptr noundef nonnull align 8 dereferenceable(72) %2) #0 align 2 {
  %4 = alloca ptr, align 8
  %5 = alloca ptr, align 8
  %6 = alloca ptr, align 8
  %7 = alloca ptr, align 8
  %8 = alloca ptr, align 8
  store ptr %0, ptr %4, align 8
  store ptr %1, ptr %5, align 8
  store ptr %2, ptr %6, align 8
  %9 = load ptr, ptr %4, align 8
  %10 = load ptr, ptr %6, align 8
  %11 = getelementptr inbounds nuw %"class.clang::SemaBase", ptr %9, i32 0, i32 0
  %12 = load ptr, ptr %11, align 8
  %13 = call noundef zeroext i1 @_ZNK5clang10ParsedAttr19checkAtLeastNumArgsERNS_4SemaEj(ptr noundef nonnull align 8 dereferenceable(72) %10, ptr noundef nonnull align 8 dereferenceable(17560) %12, i32 noundef 1)
  br i1 %13, label %14, label %19

14:                                               ; preds = %3
  %15 = load ptr, ptr %6, align 8
  %16 = getelementptr inbounds nuw %"class.clang::SemaBase", ptr %9, i32 0, i32 0
  %17 = load ptr, ptr %16, align 8
  %18 = call noundef zeroext i1 @_ZNK5clang10ParsedAttr18checkAtMostNumArgsERNS_4SemaEj(ptr noundef nonnull align 8 dereferenceable(72) %15, ptr noundef nonnull align 8 dereferenceable(17560) %17, i32 noundef 2)
  br i1 %18, label %20, label %19

19:                                               ; preds = %14, %3
  br label %36

20:                                               ; preds = %14
  %21 = load ptr, ptr %6, align 8
  %22 = call noundef ptr @_ZNK5clang10ParsedAttr12getArgAsExprEj(ptr noundef nonnull align 8 dereferenceable(72) %21, i32 noundef 0)
  store ptr %22, ptr %7, align 8
  %23 = load ptr, ptr %6, align 8
  %24 = call noundef i32 @_ZNK5clang10ParsedAttr10getNumArgsEv(ptr noundef nonnull align 8 dereferenceable(72) %23)
  %25 = icmp ugt i32 %24, 1
  br i1 %25, label %26, label %29

26:                                               ; preds = %20
  %27 = load ptr, ptr %6, align 8
  %28 = call noundef ptr @_ZNK5clang10ParsedAttr12getArgAsExprEj(ptr noundef nonnull align 8 dereferenceable(72) %27, i32 noundef 1)
  br label %30

29:                                               ; preds = %20
  br label %30

30:                                               ; preds = %29, %26
  %31 = phi ptr [ %28, %26 ], [ null, %29 ]
  store ptr %31, ptr %8, align 8
  %32 = load ptr, ptr %5, align 8
  %33 = load ptr, ptr %6, align 8
  %34 = load ptr, ptr %7, align 8
  %35 = load ptr, ptr %8, align 8
  call void @_ZN5clang10SemaAMDGPU23addAMDGPUWavesPerEUAttrEPNS_4DeclERKNS_19AttributeCommonInfoEPNS_4ExprES7_(ptr noundef nonnull align 8 dereferenceable(8) %9, ptr noundef %32, ptr noundef nonnull align 8 dereferenceable(32) %33, ptr noundef %34, ptr noundef %35)
  br label %36

36:                                               ; preds = %30, %19
  ret void
}