; Function Attrs: mustprogress nounwind uwtable
define dso_local void @_ZN5clang10SemaAMDGPU26handleAMDGPUWavesPerEUAttrEPNS_4DeclERKNS_10ParsedAttrE(ptr noundef nonnull align 8 dereferenceable(8) %0, ptr noundef %1, ptr noundef nonnull align 8 dereferenceable(72) %2) local_unnamed_addr #0 align 2 {
  %4 = load ptr, ptr %0, align 8
  %5 = tail call noundef zeroext i1 @_ZNK5clang10ParsedAttr19checkAtLeastNumArgsERNS_4SemaEj(ptr noundef nonnull align 8 dereferenceable(72) %2, ptr noundef nonnull align 8 dereferenceable(17560) %4, i32 noundef 1) #12
  br i1 %5, label %6, label %_ZN5clang10SemaAMDGPU23addAMDGPUWavesPerEUAttrEPNS_4DeclERKNS_19AttributeCommonInfoEPNS_4ExprES7_.exit

6:                                                ; preds = %3
  %7 = load ptr, ptr %0, align 8
  %8 = tail call noundef zeroext i1 @_ZNK5clang10ParsedAttr18checkAtMostNumArgsERNS_4SemaEj(ptr noundef nonnull align 8 dereferenceable(72) %2, ptr noundef nonnull align 8 dereferenceable(17560) %7, i32 noundef 2) #12
  br i1 %8, label %9, label %_ZN5clang10SemaAMDGPU23addAMDGPUWavesPerEUAttrEPNS_4DeclERKNS_19AttributeCommonInfoEPNS_4ExprES7_.exit

9:                                                ; preds = %6
  %10 = getelementptr inbounds nuw i8, ptr %2, i64 72
  %.sroa.0.0.copyload.i.i = load i64, ptr %10, align 8
  %11 = and i64 %.sroa.0.0.copyload.i.i, -4
  %12 = inttoptr i64 %11 to ptr
  %13 = getelementptr inbounds nuw i8, ptr %2, i64 48
  %14 = load i32, ptr %13, align 8
  %15 = and i32 %14, 65534
  %.not = icmp eq i32 %15, 0
  br i1 %.not, label %20, label %16

16:                                               ; preds = %9
  %17 = getelementptr inbounds nuw i8, ptr %2, i64 80
  %.sroa.0.0.copyload.i.i10 = load i64, ptr %17, align 8
  %18 = and i64 %.sroa.0.0.copyload.i.i10, -4
  %19 = inttoptr i64 %18 to ptr
  br label %20

20:                                               ; preds = %9, %16
  %21 = phi ptr [ %19, %16 ], [ null, %9 ]
  %22 = tail call noundef ptr @_ZN5clang10SemaAMDGPU26CreateAMDGPUWavesPerEUAttrERKNS_19AttributeCommonInfoEPNS_4ExprES5_(ptr noundef nonnull align 8 dereferenceable(8) %0, ptr noundef nonnull align 8 dereferenceable(32) %2, ptr noundef %12, ptr noundef %21)
  %.not.i = icmp eq ptr %22, null
  br i1 %.not.i, label %_ZN5clang10SemaAMDGPU23addAMDGPUWavesPerEUAttrEPNS_4DeclERKNS_19AttributeCommonInfoEPNS_4ExprES7_.exit, label %23

23:                                               ; preds = %20
  tail call void @_ZN5clang4Decl7addAttrEPNS_4AttrE(ptr noundef nonnull align 8 dereferenceable(33) %1, ptr noundef nonnull %22) #12
  br label %_ZN5clang10SemaAMDGPU23addAMDGPUWavesPerEUAttrEPNS_4DeclERKNS_19AttributeCommonInfoEPNS_4ExprES7_.exit

_ZN5clang10SemaAMDGPU23addAMDGPUWavesPerEUAttrEPNS_4DeclERKNS_19AttributeCommonInfoEPNS_4ExprES7_.exit: ; preds = %23, %20, %3, %6
  ret void
}